; Function Attrs: nounwind uwtable
define noundef ptr @Abc_NtkCreateNodeInv(ptr noundef %0, ptr noundef %1) local_unnamed_addr #0 {
  %3 = tail call noundef ptr @Abc_NtkCreateObj(ptr noundef %0, i32 noundef 7)
  %.not = icmp eq ptr %1, null
  br i1 %.not, label %5, label %4

4:                                                ; preds = %2
  tail call void @Abc_ObjAddFanin(ptr noundef %3, ptr noundef nonnull %1) #10
  br label %5

5:                                                ; preds = %4, %2
  %6 = getelementptr i8, ptr %0, i64 4
  %.val21 = load i32, ptr %6, align 4, !tbaa !51
  switch i32 %.val21, label %32 [
    i32 1, label %7
    i32 2, label %12
    i32 3, label %20
    i32 4, label %28
  ]

7:                                                ; preds = %5
  %8 = getelementptr inbounds nuw i8, ptr %0, i64 256
  %9 = load ptr, ptr %8, align 8, !tbaa !52
  %10 = tail call ptr @Abc_SopRegister(ptr noundef %9, ptr noundef nonnull @.str.6) #10
  %11 = getelementptr inbounds nuw i8, ptr %3, i64 56
  store ptr %10, ptr %11, align 8, !tbaa !43
  br label %32

12:                                               ; preds = %5
  %13 = getelementptr inbounds nuw i8, ptr %0, i64 256
  %14 = load ptr, ptr %13, align 8, !tbaa !52
  %15 = tail call ptr @Cudd_bddIthVar(ptr noundef %14, i32 noundef 0) #10
  %16 = ptrtoint ptr %15 to i64
  %17 = xor i64 %16, 1
  %18 = inttoptr i64 %17 to ptr
  %19 = getelementptr inbounds nuw i8, ptr %3, i64 56
  store ptr %18, ptr %19, align 8, !tbaa !43
  tail call void @Cudd_Ref(ptr noundef %18) #10
  br label %32

20:                                               ; preds = %5
  %21 = getelementptr inbounds nuw i8, ptr %0, i64 256
  %22 = load ptr, ptr %21, align 8, !tbaa !52
  %23 = tail call ptr @Hop_IthVar(ptr noundef %22, i32 noundef 0) #10
  %24 = ptrtoint ptr %23 to i64
  %25 = xor i64 %24, 1
  %26 = inttoptr i64 %25 to ptr
  %27 = getelementptr inbounds nuw i8, ptr %3, i64 56
  store ptr %26, ptr %27, align 8, !tbaa !43
  br label %32

28:                                               ; preds = %5
  %29 = tail call ptr (...) @Abc_FrameReadLibGen() #10
  %30 = tail call ptr @Mio_LibraryReadInv(ptr noundef %29) #10
  %31 = getelementptr inbounds nuw i8, ptr %3, i64 56
  store ptr %30, ptr %31, align 8, !tbaa !43
  br label %32

32:                                               ; preds = %5, %12, %28, %20, %7
  ret ptr %3
}